# SymbolsHelper-Confirmed: 6.3.0 amd64
libKF6ConfigGui.so.6 libkf6configgui6 #MINVER#
* Build-Depends-Package: libkf6config-dev
 _Z19initKConfigGroupGuiv@Base 6.0.0
 _ZGVZN9QMetaType21registerConverterImplI5QListI12QKeySequenceE9QIterableI13QMetaSequenceEEEbSt8functionIFbPKvPvEES_S_E10unregister@Base 6.0.0
 _ZGVZN9QMetaType23registerMutableViewImplI5QListI12QKeySequenceE9QIterableI13QMetaSequenceEEEbSt8functionIFbPvS8_EES_S_E10unregister@Base 6.0.0
 _ZN10KConfigGui13sessionConfigEv@Base 6.0.0
 _ZN10KConfigGui16hasSessionConfigEv@Base 6.0.0
 _ZN10KConfigGui16setSessionConfigERK7QStringS2_@Base 6.0.0
 _ZN13KConfigLoader7usrSaveEv@Base 6.0.0
 _ZN13KConfigLoaderC1E28QExplicitlySharedDataPointerI13KSharedConfigEP9QIODeviceP7QObject@Base 6.0.0
 _ZN13KConfigLoaderC1ERK12KConfigGroupP9QIODeviceP7QObject@Base 6.0.0
 _ZN13KConfigLoaderC1ERK7QStringP9QIODeviceP7QObject@Base 6.0.0
 _ZN13KConfigLoaderC2E28QExplicitlySharedDataPointerI13KSharedConfigEP9QIODeviceP7QObject@Base 6.0.0
 _ZN13KConfigLoaderC2ERK12KConfigGroupP9QIODeviceP7QObject@Base 6.0.0
 _ZN13KConfigLoaderC2ERK7QStringP9QIODeviceP7QObject@Base 6.0.0
 _ZN13KConfigLoaderD0Ev@Base 6.0.0
 _ZN13KConfigLoaderD1Ev@Base 6.0.0
 _ZN13KConfigLoaderD2Ev@Base 6.0.0
 _ZN13KWindowConfig14saveWindowSizeEPK7QWindowR12KConfigGroup6QFlagsIN11KConfigBase15WriteConfigFlagEE@Base 6.0.0
 _ZN13KWindowConfig17restoreWindowSizeEP7QWindowRK12KConfigGroup@Base 6.0.0
 _ZN13KWindowConfig18hasSavedWindowSizeER12KConfigGroup@Base 6.0.0
 _ZN13KWindowConfig18saveWindowPositionEPK7QWindowR12KConfigGroup6QFlagsIN11KConfigBase15WriteConfigFlagEE@Base 6.0.0
 _ZN13KWindowConfig21restoreWindowPositionEP7QWindowRK12KConfigGroup@Base 6.0.0
 _ZN13KWindowConfig22hasSavedWindowPositionER12KConfigGroup@Base 6.0.0
 _ZN13KWindowConfig27restoreWindowScreenPositionEP7QWindowPK7QScreenRK12KConfigGroup@Base 6.0.0
 _ZN13QMetaSequence12MetaSequenceI5QListI12QKeySequenceEE5valueE@Base 6.0.0
 _ZN15KConfigSkeleton11addItemFontERK7QStringR5QFontRKS3_S2_@Base 6.0.0
 _ZN15KConfigSkeleton11qt_metacallEN11QMetaObject4CallEiPPv@Base 6.0.0
 _ZN15KConfigSkeleton11qt_metacastEPKc@Base 6.0.0
 _ZN15KConfigSkeleton12addItemColorERK7QStringR6QColorRKS3_S2_@Base 6.0.0
 _ZN15KConfigSkeleton16staticMetaObjectE@Base 6.0.0
 _ZN15KConfigSkeleton8ItemFont10readConfigEP7KConfig@Base 6.0.0
 _ZN15KConfigSkeleton8ItemFont11setPropertyERK8QVariant@Base 6.0.0
 _ZN15KConfigSkeleton8ItemFontC1ERK7QStringS3_R5QFontRKS4_@Base 6.0.0
 _ZN15KConfigSkeleton8ItemFontC2ERK7QStringS3_R5QFontRKS4_@Base 6.0.0
 _ZN15KConfigSkeleton9ItemColor10readConfigEP7KConfig@Base 6.0.0
 _ZN15KConfigSkeleton9ItemColor11setPropertyERK8QVariant@Base 6.0.0
 _ZN15KConfigSkeleton9ItemColorC1ERK7QStringS3_R6QColorRKS4_@Base 6.0.0
 _ZN15KConfigSkeleton9ItemColorC2ERK7QStringS3_R6QColorRKS4_@Base 6.0.0
 _ZN15KConfigSkeletonC1E28QExplicitlySharedDataPointerI13KSharedConfigEP7QObject@Base 6.0.0
 _ZN15KConfigSkeletonC1ERK7QStringP7QObject@Base 6.0.0
 _ZN15KConfigSkeletonC2E28QExplicitlySharedDataPointerI13KSharedConfigEP7QObject@Base 6.0.0
 _ZN15KConfigSkeletonC2ERK7QStringP7QObject@Base 6.0.0
 _ZN16KStandardActions19shortcutForActionIdENS_14StandardActionE@Base 6.3.0
 _ZN16KStandardActions20_kgui_createInternalENS_14StandardActionEP7QObject@Base 6.3.0
 _ZN16KStandardActions4nameENS_14StandardActionE@Base 6.3.0
 _ZN16KStandardActions9actionIdsEv@Base 6.3.0
 _ZN17KStandardShortcut10completionEv@Base 6.0.0
 _ZN17KStandardShortcut10deleteFileEv@Base 6.0.0
 _ZN17KStandardShortcut10findByNameERK7QString@Base 6.0.0
 _ZN17KStandardShortcut10fullScreenEv@Base 6.0.0
 _ZN17KStandardShortcut10renameFileEv@Base 6.0.0
 _ZN17KStandardShortcut10rotateDownEv@Base 6.0.0
 _ZN17KStandardShortcut11addBookmarkEv@Base 6.0.0
 _ZN17KStandardShortcut11forwardWordEv@Base 6.0.0
 _ZN17KStandardShortcut11moveToTrashEv@Base 6.0.0
 _ZN17KStandardShortcut11preferencesEv@Base 6.0.0
 _ZN17KStandardShortcut11showMenubarEv@Base 6.0.0
 _ZN17KStandardShortcut12backwardWordEv@Base 6.0.0
 _ZN17KStandardShortcut12createFolderEv@Base 6.0.0
 _ZN17KStandardShortcut12openMainMenuEv@Base 6.0.0
 _ZN17KStandardShortcut12saveShortcutENS_16StandardShortcutERK5QListI12QKeySequenceE@Base 6.0.0
 _ZN17KStandardShortcut14deleteWordBackEv@Base 6.0.0
 _ZN17KStandardShortcut14nextCompletionEv@Base 6.0.0
 _ZN17KStandardShortcut14pasteSelectionEv@Base 6.0.0
 _ZN17KStandardShortcut14prevCompletionEv@Base 6.0.0
 _ZN17KStandardShortcut15beginningOfLineEv@Base 6.0.0
 _ZN17KStandardShortcut15openContextMenuEv@Base 6.0.0
 _ZN17KStandardShortcut15shortcutWatcherEv@Base 6.0.0
 _ZN17KStandardShortcut17deleteWordForwardEv@Base 6.0.0
 _ZN17KStandardShortcut19showHideHiddenFilesEv@Base 6.0.0
 _ZN17KStandardShortcut19substringCompletionEv@Base 6.0.0
 _ZN17KStandardShortcut23StandardShortcutWatcher11qt_metacallEN11QMetaObject4CallEiPPv@Base 6.0.0
 _ZN17KStandardShortcut23StandardShortcutWatcher11qt_metacastEPKc@Base 6.0.0
 _ZN17KStandardShortcut23StandardShortcutWatcher15shortcutChangedENS_16StandardShortcutERK5QListI12QKeySequenceE@Base 6.0.0
 _ZN17KStandardShortcut23StandardShortcutWatcher16staticMetaObjectE@Base 6.0.0
 _ZN17KStandardShortcut23StandardShortcutWatcherD0Ev@Base 6.0.0
 _ZN17KStandardShortcut23StandardShortcutWatcherD1Ev@Base 6.0.0
 _ZN17KStandardShortcut23StandardShortcutWatcherD2Ev@Base 6.0.0
 _ZN17KStandardShortcut24hardcodedDefaultShortcutENS_16StandardShortcutE@Base 6.0.0
 _ZN17KStandardShortcut2upEv@Base 6.0.0
 _ZN17KStandardShortcut3cutEv@Base 6.0.0
 _ZN17KStandardShortcut3endEv@Base 6.0.0
 _ZN17KStandardShortcut4backEv@Base 6.0.0
 _ZN17KStandardShortcut4copyEv@Base 6.0.0
 _ZN17KStandardShortcut4findERK12QKeySequence@Base 6.0.0
 _ZN17KStandardShortcut4findEv@Base 6.0.0
 _ZN17KStandardShortcut4helpEv@Base 6.0.0
 _ZN17KStandardShortcut4homeEv@Base 6.0.0
 _ZN17KStandardShortcut4nameENS_16StandardShortcutE@Base 6.0.0
 _ZN17KStandardShortcut4nextEv@Base 6.0.0
 _ZN17KStandardShortcut4openEv@Base 6.0.0
 _ZN17KStandardShortcut4quitEv@Base 6.0.0
 _ZN17KStandardShortcut4redoEv@Base 6.0.0
 _ZN17KStandardShortcut4saveEv@Base 6.0.0
 _ZN17KStandardShortcut4undoEv@Base 6.0.0
 _ZN17KStandardShortcut5beginEv@Base 6.0.0
 _ZN17KStandardShortcut5closeEv@Base 6.0.0
 _ZN17KStandardShortcut5labelENS_16StandardShortcutE@Base 6.0.0
 _ZN17KStandardShortcut5pasteEv@Base 6.0.0
 _ZN17KStandardShortcut5printEv@Base 6.0.0
 _ZN17KStandardShortcut5priorEv@Base 6.0.0
 _ZN17KStandardShortcut6reloadEv@Base 6.0.0
 _ZN17KStandardShortcut6zoomInEv@Base 6.0.0
 _ZN17KStandardShortcut7forwardEv@Base 6.0.0
 _ZN17KStandardShortcut7openNewEv@Base 6.0.0
 _ZN17KStandardShortcut7replaceEv@Base 6.0.0
 _ZN17KStandardShortcut7tabNextEv@Base 6.0.0
 _ZN17KStandardShortcut7tabPrevEv@Base 6.0.0
 _ZN17KStandardShortcut7zoomOutEv@Base 6.0.0
 _ZN17KStandardShortcut8categoryENS_16StandardShortcutE@Base 6.0.0
 _ZN17KStandardShortcut8findNextEv@Base 6.0.0
 _ZN17KStandardShortcut8findPrevEv@Base 6.0.0
 _ZN17KStandardShortcut8gotoLineEv@Base 6.0.0
 _ZN17KStandardShortcut8rotateUpEv@Base 6.0.0
 _ZN17KStandardShortcut8shortcutENS_16StandardShortcutE@Base 6.0.0
 _ZN17KStandardShortcut9endOfLineEv@Base 6.0.0
 _ZN17KStandardShortcut9selectAllEv@Base 6.0.0
 _ZN17KStandardShortcut9whatsThisENS_16StandardShortcutE@Base 6.0.0
 _ZN17KStandardShortcut9whatsThisEv@Base 6.0.0
 _ZN17KWindowStateSaver10initWidgetEP7QObjectRKSt8functionIFP7QWindowvEERK12KConfigGroup@Base 6.0.0
 _ZN17KWindowStateSaver10initWidgetEP7QObjectRKSt8functionIFP7QWindowvEERK7QString@Base 6.0.0
 _ZN17KWindowStateSaver10timerEventEP11QTimerEvent@Base 6.0.0
 _ZN17KWindowStateSaver11eventFilterEP7QObjectP6QEvent@Base 6.0.0
 _ZN17KWindowStateSaver11qt_metacallEN11QMetaObject4CallEiPPv@Base 6.0.0
 _ZN17KWindowStateSaver11qt_metacastEPKc@Base 6.0.0
 _ZN17KWindowStateSaver16staticMetaObjectE@Base 6.0.0
 _ZN17KWindowStateSaverC1EP7QWindowRK12KConfigGroup@Base 6.0.0
 _ZN17KWindowStateSaverC1EP7QWindowRK7QString@Base 6.0.0
 _ZN17KWindowStateSaverC2EP7QWindowRK12KConfigGroup@Base 6.0.0
 _ZN17KWindowStateSaverC2EP7QWindowRK7QString@Base 6.0.0
 _ZN17KWindowStateSaverD0Ev@Base 6.0.0
 _ZN17KWindowStateSaverD1Ev@Base 6.0.0
 _ZN17KWindowStateSaverD2Ev@Base 6.0.0
 _ZNK13KConfigLoader14findItemByNameERK7QString@Base 6.0.0
 _ZNK13KConfigLoader8findItemERK7QStringS2_@Base 6.0.0
 _ZNK13KConfigLoader8hasGroupERK7QString@Base 6.0.0
 _ZNK13KConfigLoader8propertyERK7QString@Base 6.0.0
 _ZNK13KConfigLoader9groupListEv@Base 6.0.0
 _ZNK15KConfigSkeleton10metaObjectEv@Base 6.0.0
 _ZNK15KConfigSkeleton8ItemFont7isEqualERK8QVariant@Base 6.0.0
 _ZNK15KConfigSkeleton8ItemFont8propertyEv@Base 6.0.0
 _ZNK15KConfigSkeleton9ItemColor7isEqualERK8QVariant@Base 6.0.0
 _ZNK15KConfigSkeleton9ItemColor8propertyEv@Base 6.0.0
 _ZNK17KStandardShortcut23StandardShortcutWatcher10metaObjectEv@Base 6.0.0
 _ZNK17KWindowStateSaver10metaObjectEv@Base 6.0.0
 _ZTI13KConfigLoader@Base 6.0.0
 _ZTI15KConfigSkeleton@Base 6.0.0
 _ZTI17KWindowStateSaver@Base 6.0.0
 _ZTIN15KConfigSkeleton8ItemFontE@Base 6.0.0
 _ZTIN15KConfigSkeleton9ItemColorE@Base 6.0.0
 _ZTIN17KStandardShortcut23StandardShortcutWatcherE@Base 6.0.0
 _ZTIZN9QMetaType17registerConverterI5QListI12QKeySequenceE9QIterableI13QMetaSequenceEN9QtPrivate33QSequentialIterableConvertFunctorIS3_EEEEbT1_EUlPKvPvE_@Base 6.0.0
 _ZTIZN9QMetaType19registerMutableViewI5QListI12QKeySequenceE9QIterableI13QMetaSequenceEN9QtPrivate37QSequentialIterableMutableViewFunctorIS3_EEEEbT1_EUlPvSB_E_@Base 6.0.0
 _ZTS13KConfigLoader@Base 6.0.0
 _ZTS15KConfigSkeleton@Base 6.0.0
 _ZTS17KWindowStateSaver@Base 6.0.0
 _ZTSN15KConfigSkeleton8ItemFontE@Base 6.0.0
 _ZTSN15KConfigSkeleton9ItemColorE@Base 6.0.0
 _ZTSN17KStandardShortcut23StandardShortcutWatcherE@Base 6.0.0
 _ZTSZN9QMetaType17registerConverterI5QListI12QKeySequenceE9QIterableI13QMetaSequenceEN9QtPrivate33QSequentialIterableConvertFunctorIS3_EEEEbT1_EUlPKvPvE_@Base 6.0.0
 _ZTSZN9QMetaType19registerMutableViewI5QListI12QKeySequenceE9QIterableI13QMetaSequenceEN9QtPrivate37QSequentialIterableMutableViewFunctorIS3_EEEEbT1_EUlPvSB_E_@Base 6.0.0
 _ZTV13KConfigLoader@Base 6.0.0
 _ZTV15KConfigSkeleton@Base 6.0.0
 _ZTV17KWindowStateSaver@Base 6.0.0
 _ZTVN15KConfigSkeleton8ItemFontE@Base 6.0.0
 _ZTVN15KConfigSkeleton9ItemColorE@Base 6.0.0
 _ZTVN17KStandardShortcut23StandardShortcutWatcherE@Base 6.0.0
 (optional=templinst)_ZZN9QMetaType21registerConverterImplI5QListI12QKeySequenceE9QIterableI13QMetaSequenceEEEbSt8functionIFbPKvPvEES_S_E10unregister@Base 6.0.0
 (optional=templinst)_ZZN9QMetaType23registerMutableViewImplI5QListI12QKeySequenceE9QIterableI13QMetaSequenceEEEbSt8functionIFbPvS8_EES_S_E10unregister@Base 6.0.0
